; ModuleID = '19/491.c'
source_filename = "19/491.c"
target datalayout = "e-m:e-p270:32:32-p271:32:32-p272:64:64-i64:64-f80:128-n8:16:32:64-S128"
target triple = "x86_64-pc-linux-gnu"

@.str = private unnamed_addr constant [4 x i8] c"%s \00", align 1
@.str.1 = private unnamed_addr constant [3 x i8] c"%s\00", align 1

; Function Attrs: noinline nounwind uwtable
define dso_local i32 @main() #0 {
  %1 = alloca i32, align 4
  %2 = alloca [100 x i8], align 16
  %3 = alloca [100 x i8], align 16
  %4 = alloca [100 x i8], align 16
  %5 = alloca i8*, align 8
  %6 = alloca i8*, align 8
  %7 = alloca i8*, align 8
  %8 = alloca [100 x i8*], align 16
  %9 = alloca i32, align 4
  %10 = alloca i32, align 4
  store i32 0, i32* %1, align 4
  store i32 0, i32* %9, align 4
  %11 = getelementptr inbounds [100 x i8], [100 x i8]* %2, i64 0, i64 0
  %12 = call i32 (i8*, ...) bitcast (i32 (...)* @gets to i32 (i8*, ...)*)(i8* %11)
  %13 = getelementptr inbounds [100 x i8], [100 x i8]* %3, i64 0, i64 0
  %14 = call i32 (i8*, ...) bitcast (i32 (...)* @gets to i32 (i8*, ...)*)(i8* %13)
  %15 = getelementptr inbounds [100 x i8], [100 x i8]* %4, i64 0, i64 0
  %16 = call i32 (i8*, ...) bitcast (i32 (...)* @gets to i32 (i8*, ...)*)(i8* %15)
  %17 = getelementptr inbounds [100 x i8], [100 x i8]* %2, i64 0, i64 0
  store i8* %17, i8** %5, align 8
  %18 = getelementptr inbounds [100 x i8], [100 x i8]* %3, i64 0, i64 0
  store i8* %18, i8** %6, align 8
  %19 = getelementptr inbounds [100 x i8], [100 x i8]* %4, i64 0, i64 0
  store i8* %19, i8** %7, align 8
  %20 = getelementptr inbounds [100 x i8], [100 x i8]* %2, i64 0, i64 0
  %21 = getelementptr inbounds [100 x i8*], [100 x i8*]* %8, i64 0, i64 0
  store i8* %20, i8** %21, align 16
  br label %22

22:                                               ; preds = %42, %0
  %23 = load i8*, i8** %5, align 8
  %24 = load i8, i8* %23, align 1
  %25 = sext i8 %24 to i32
  %26 = icmp ne i32 %25, 0
  br i1 %26, label %27, label %45

27:                                               ; preds = %22
  %28 = load i8*, i8** %5, align 8
  %29 = load i8, i8* %28, align 1
  %30 = sext i8 %29 to i32
  %31 = icmp eq i32 %30, 32
  br i1 %31, label %32, label %41

32:                                               ; preds = %27
  %33 = load i32, i32* %9, align 4
  %34 = add nsw i32 %33, 1
  store i32 %34, i32* %9, align 4
  %35 = load i8*, i8** %5, align 8
  store i8 0, i8* %35, align 1
  %36 = load i8*, i8** %5, align 8
  %37 = getelementptr inbounds i8, i8* %36, i64 1
  %38 = load i32, i32* %9, align 4
  %39 = sext i32 %38 to i64
  %40 = getelementptr inbounds [100 x i8*], [100 x i8*]* %8, i64 0, i64 %39
  store i8* %37, i8** %40, align 8
  br label %41

41:                                               ; preds = %32, %27
  br label %42

42:                                               ; preds = %41
  %43 = load i8*, i8** %5, align 8
  %44 = getelementptr inbounds i8, i8* %43, i32 1
  store i8* %44, i8** %5, align 8
  br label %22

45:                                               ; preds = %22
  store i32 0, i32* %10, align 4
  br label %46

46:                                               ; preds = %64, %45
  %47 = load i32, i32* %10, align 4
  %48 = load i32, i32* %9, align 4
  %49 = icmp sle i32 %47, %48
  br i1 %49, label %50, label %67

50:                                               ; preds = %46
  %51 = load i32, i32* %10, align 4
  %52 = sext i32 %51 to i64
  %53 = getelementptr inbounds [100 x i8*], [100 x i8*]* %8, i64 0, i64 %52
  %54 = load i8*, i8** %53, align 8
  %55 = load i8*, i8** %6, align 8
  %56 = call i32 @strcmp(i8* %54, i8* %55) #3
  %57 = icmp eq i32 %56, 0
  br i1 %57, label %58, label %63

58:                                               ; preds = %50
  %59 = load i8*, i8** %7, align 8
  %60 = load i32, i32* %10, align 4
  %61 = sext i32 %60 to i64
  %62 = getelementptr inbounds [100 x i8*], [100 x i8*]* %8, i64 0, i64 %61
  store i8* %59, i8** %62, align 8
  br label %63

63:                                               ; preds = %58, %50
  br label %64

64:                                               ; preds = %63
  %65 = load i32, i32* %10, align 4
  %66 = add nsw i32 %65, 1
  store i32 %66, i32* %10, align 4
  br label %46

67:                                               ; preds = %46
  store i32 0, i32* %10, align 4
  br label %68

68:                                               ; preds = %78, %67
  %69 = load i32, i32* %10, align 4
  %70 = load i32, i32* %9, align 4
  %71 = icmp slt i32 %69, %70
  br i1 %71, label %72, label %81

72:                                               ; preds = %68
  %73 = load i32, i32* %10, align 4
  %74 = sext i32 %73 to i64
  %75 = getelementptr inbounds [100 x i8*], [100 x i8*]* %8, i64 0, i64 %74
  %76 = load i8*, i8** %75, align 8
  %77 = call i32 (i8*, ...) @printf(i8* getelementptr inbounds ([4 x i8], [4 x i8]* @.str, i64 0, i64 0), i8* %76)
  br label %78

78:                                               ; preds = %72
  %79 = load i32, i32* %10, align 4
  %80 = add nsw i32 %79, 1
  store i32 %80, i32* %10, align 4
  br label %68

81:                                               ; preds = %68
  %82 = load i32, i32* %9, align 4
  %83 = sext i32 %82 to i64
  %84 = getelementptr inbounds [100 x i8*], [100 x i8*]* %8, i64 0, i64 %83
  %85 = load i8*, i8** %84, align 8
  %86 = call i32 (i8*, ...) @printf(i8* getelementptr inbounds ([3 x i8], [3 x i8]* @.str.1, i64 0, i64 0), i8* %85)
  %87 = load i32, i32* %1, align 4
  ret i32 %87
}

declare dso_local i32 @gets(...) #1

; Function Attrs: nounwind readonly
declare dso_local i32 @strcmp(i8*, i8*) #2

declare dso_local i32 @printf(i8*, ...) #1


!llvm.module.flags = !{!0}
!llvm.ident = !{!1}

!0 = !{i32 1, !"wchar_size", i32 4}
!1 = !{!"clang version 10.0.0-4ubuntu1 "}
